target datalayout = "e-m:e-p270:32:32-p271:32:32-p272:64:64-i64:64-i128:128-f80:128-n8:16:32:64-S128"
target triple = "x86_64-pc-linux-gnu"

; Function Attrs: nounwind uwtable
define dso_local i32 @slurm_sort_char_list_asc(ptr noundef %0, ptr noundef %1) #0 {
  %3 = alloca i32, align 4
  %4 = alloca ptr, align 8
  %5 = alloca ptr, align 8
  %6 = alloca ptr, align 8
  %7 = alloca ptr, align 8
  %8 = alloca i32, align 4
  %9 = alloca i32, align 4
  store ptr %0, ptr %4, align 8
  store ptr %1, ptr %5, align 8
  call void @llvm.lifetime.start.p0(i64 8, ptr %6) #11
  %10 = load ptr, ptr %4, align 8
  %11 = load ptr, ptr %10, align 8
  store ptr %11, ptr %6, align 8
  call void @llvm.lifetime.start.p0(i64 8, ptr %7) #11
  %12 = load ptr, ptr %5, align 8
  %13 = load ptr, ptr %12, align 8
  store ptr %13, ptr %7, align 8
  call void @llvm.lifetime.start.p0(i64 4, ptr %8) #11
  %14 = load ptr, ptr %6, align 8
  %15 = load ptr, ptr %7, align 8
  %16 = call i32 @xstrcmp(ptr noundef %14, ptr noundef %15)
  store i32 %16, ptr %8, align 4
  %17 = load i32, ptr %8, align 4
  %18 = icmp slt i32 %17, 0
  br i1 %18, label %19, label %20

19:                                               ; preds = %2
  store i32 -1, ptr %3, align 4
  store i32 1, ptr %9, align 4
  br label %26

20:                                               ; preds = %2
  %21 = load i32, ptr %8, align 4
  %22 = icmp sgt i32 %21, 0
  br i1 %22, label %23, label %24

23:                                               ; preds = %20
  store i32 1, ptr %3, align 4
  store i32 1, ptr %9, align 4
  br label %26

24:                                               ; preds = %20
  br label %25

25:                                               ; preds = %24
  store i32 0, ptr %3, align 4
  store i32 1, ptr %9, align 4
  br label %26

26:                                               ; preds = %25, %23, %19
  call void @llvm.lifetime.end.p0(i64 4, ptr %8) #11
  call void @llvm.lifetime.end.p0(i64 8, ptr %7) #11
  call void @llvm.lifetime.end.p0(i64 8, ptr %6) #11
  %27 = load i32, ptr %3, align 4
  ret i32 %27
}